
a.out:     file format elf32-littleriscv


Disassembly of section .text:

00010074 <hlt_t>:
   10074:	fd010113          	addi	sp,sp,-48
   10078:	02812623          	sw	s0,44(sp)
   1007c:	03010413          	addi	s0,sp,48
   10080:	fca42e23          	sw	a0,-36(s0)
   10084:	fe042623          	sw	zero,-20(s0)
   10088:	0100006f          	j	10098 <hlt_t+0x24>
   1008c:	fec42783          	lw	a5,-20(s0)
   10090:	00178793          	addi	a5,a5,1
   10094:	fef42623          	sw	a5,-20(s0)
   10098:	fec42703          	lw	a4,-20(s0)
   1009c:	fdc42783          	lw	a5,-36(s0)
   100a0:	fef746e3          	blt	a4,a5,1008c <hlt_t+0x18>
   100a4:	00000013          	nop
   100a8:	02c12403          	lw	s0,44(sp)
   100ac:	03010113          	addi	sp,sp,48
   100b0:	00008067          	ret

000100b4 <hlt>:
   100b4:	fe010113          	addi	sp,sp,-32
   100b8:	00812e23          	sw	s0,28(sp)
   100bc:	02010413          	addi	s0,sp,32
   100c0:	fe042623          	sw	zero,-20(s0)
   100c4:	fec42783          	lw	a5,-20(s0)
   100c8:	00178713          	addi	a4,a5,1
   100cc:	fee42623          	sw	a4,-20(s0)
   100d0:	fef42623          	sw	a5,-20(s0)
   100d4:	ff1ff06f          	j	100c4 <hlt+0x10>

000100d8 <init_palatte>:
   100d8:	fe010113          	addi	sp,sp,-32
   100dc:	00812e23          	sw	s0,28(sp)
   100e0:	02010413          	addi	s0,sp,32
   100e4:	0c0007b7          	lui	a5,0xc000
   100e8:	fef42423          	sw	a5,-24(s0)
   100ec:	fe042623          	sw	zero,-20(s0)
   100f0:	03c0006f          	j	1012c <init_palatte+0x54>
   100f4:	fec42783          	lw	a5,-20(s0)
   100f8:	00179793          	slli	a5,a5,0x1
   100fc:	fe842703          	lw	a4,-24(s0)
   10100:	00f707b3          	add	a5,a4,a5
   10104:	00011737          	lui	a4,0x11
   10108:	27070693          	addi	a3,a4,624 # 11270 <table.0>
   1010c:	fec42703          	lw	a4,-20(s0)
   10110:	00171713          	slli	a4,a4,0x1
   10114:	00e68733          	add	a4,a3,a4
   10118:	00075703          	lhu	a4,0(a4)
   1011c:	00e79023          	sh	a4,0(a5) # c000000 <__global_pointer$+0xbfee590>
   10120:	fec42783          	lw	a5,-20(s0)
   10124:	00178793          	addi	a5,a5,1
   10128:	fef42623          	sw	a5,-20(s0)
   1012c:	fec42703          	lw	a4,-20(s0)
   10130:	00e00793          	li	a5,14
   10134:	fce7d0e3          	bge	a5,a4,100f4 <init_palatte+0x1c>
   10138:	00000013          	nop
   1013c:	01c12403          	lw	s0,28(sp)
   10140:	02010113          	addi	sp,sp,32
   10144:	00008067          	ret

00010148 <boxfill8>:
   10148:	fc010113          	addi	sp,sp,-64
   1014c:	02812e23          	sw	s0,60(sp)
   10150:	04010413          	addi	s0,sp,64
   10154:	fca42e23          	sw	a0,-36(s0)
   10158:	fcb42c23          	sw	a1,-40(s0)
   1015c:	fcd42823          	sw	a3,-48(s0)
   10160:	fce42623          	sw	a4,-52(s0)
   10164:	fcf42423          	sw	a5,-56(s0)
   10168:	fd042223          	sw	a6,-60(s0)
   1016c:	00060793          	mv	a5,a2
   10170:	fcf40ba3          	sb	a5,-41(s0)
   10174:	fcc42783          	lw	a5,-52(s0)
   10178:	fef42423          	sw	a5,-24(s0)
   1017c:	0580006f          	j	101d4 <boxfill8+0x8c>
   10180:	fd042783          	lw	a5,-48(s0)
   10184:	fef42623          	sw	a5,-20(s0)
   10188:	0340006f          	j	101bc <boxfill8+0x74>
   1018c:	fe842783          	lw	a5,-24(s0)
   10190:	00a79713          	slli	a4,a5,0xa
   10194:	fec42783          	lw	a5,-20(s0)
   10198:	00f707b3          	add	a5,a4,a5
   1019c:	00078713          	mv	a4,a5
   101a0:	fdc42783          	lw	a5,-36(s0)
   101a4:	00e787b3          	add	a5,a5,a4
   101a8:	fd744703          	lbu	a4,-41(s0)
   101ac:	00e78023          	sb	a4,0(a5)
   101b0:	fec42783          	lw	a5,-20(s0)
   101b4:	00178793          	addi	a5,a5,1
   101b8:	fef42623          	sw	a5,-20(s0)
   101bc:	fec42703          	lw	a4,-20(s0)
   101c0:	fc842783          	lw	a5,-56(s0)
   101c4:	fce7d4e3          	bge	a5,a4,1018c <boxfill8+0x44>
   101c8:	fe842783          	lw	a5,-24(s0)
   101cc:	00178793          	addi	a5,a5,1
   101d0:	fef42423          	sw	a5,-24(s0)
   101d4:	fe842703          	lw	a4,-24(s0)
   101d8:	fc442783          	lw	a5,-60(s0)
   101dc:	fae7d2e3          	bge	a5,a4,10180 <boxfill8+0x38>
   101e0:	00000013          	nop
   101e4:	03c12403          	lw	s0,60(sp)
   101e8:	04010113          	addi	sp,sp,64
   101ec:	00008067          	ret

000101f0 <main>:
   101f0:	fe010113          	addi	sp,sp,-32
   101f4:	00112e23          	sw	ra,28(sp)
   101f8:	00812c23          	sw	s0,24(sp)
   101fc:	02010413          	addi	s0,sp,32
   10200:	ed9ff0ef          	jal	ra,100d8 <init_palatte>
   10204:	0d0007b7          	lui	a5,0xd000
   10208:	fef42623          	sw	a5,-20(s0)
   1020c:	07800813          	li	a6,120
   10210:	07800793          	li	a5,120
   10214:	01400713          	li	a4,20
   10218:	01400693          	li	a3,20
   1021c:	00100613          	li	a2,1
   10220:	14000593          	li	a1,320
   10224:	fec42503          	lw	a0,-20(s0)
   10228:	f21ff0ef          	jal	ra,10148 <boxfill8>
   1022c:	09600813          	li	a6,150
   10230:	0aa00793          	li	a5,170
   10234:	03200713          	li	a4,50
   10238:	04600693          	li	a3,70
   1023c:	00200613          	li	a2,2
   10240:	14000593          	li	a1,320
   10244:	fec42503          	lw	a0,-20(s0)
   10248:	f01ff0ef          	jal	ra,10148 <boxfill8>
   1024c:	0b400813          	li	a6,180
   10250:	0dc00793          	li	a5,220
   10254:	05000713          	li	a4,80
   10258:	07800693          	li	a3,120
   1025c:	00400613          	li	a2,4
   10260:	14000593          	li	a1,320
   10264:	fec42503          	lw	a0,-20(s0)
   10268:	ee1ff0ef          	jal	ra,10148 <boxfill8>
   1026c:	fa1ff06f          	j	1020c <main+0x1c>
